; ModuleID = '1/1049.c'
source_filename = "1/1049.c"
target datalayout = "e-m:e-p270:32:32-p271:32:32-p272:64:64-i64:64-f80:128-n8:16:32:64-S128"
target triple = "x86_64-pc-linux-gnu"

@.str = private unnamed_addr constant [3 x i8] c"%d\00", align 1
@i = common dso_local global i32 0, align 4
@sum = common dso_local global [50 x i32] zeroinitializer, align 16
@.str.1 = private unnamed_addr constant [4 x i8] c"%d\0A\00", align 1

; Function Attrs: noinline nounwind uwtable
define dso_local i32 @main() #0 {
  %1 = alloca i32, align 4
  %2 = alloca i32, align 4
  %3 = alloca [50 x i32], align 16
  %4 = alloca [50 x i32], align 16
  store i32 0, i32* %1, align 4
  %5 = call i32 (i8*, ...) @__isoc99_scanf(i8* getelementptr inbounds ([3 x i8], [3 x i8]* @.str, i64 0, i64 0), i32* %2)
  store i32 0, i32* @i, align 4
  br label %6

6:                                                ; preds = %80, %0
  %7 = load i32, i32* @i, align 4
  %8 = load i32, i32* %2, align 4
  %9 = icmp slt i32 %7, %8
  br i1 %9, label %10, label %83

10:                                               ; preds = %6
  %11 = load i32, i32* @i, align 4
  %12 = sext i32 %11 to i64
  %13 = getelementptr inbounds [50 x i32], [50 x i32]* %4, i64 0, i64 %12
  %14 = call i32 (i8*, ...) @__isoc99_scanf(i8* getelementptr inbounds ([3 x i8], [3 x i8]* @.str, i64 0, i64 0), i32* %13)
  %15 = load i32, i32* @i, align 4
  %16 = sext i32 %15 to i64
  %17 = getelementptr inbounds [50 x i32], [50 x i32]* @sum, i64 0, i64 %16
  store i32 0, i32* %17, align 4
  %18 = load i32, i32* @i, align 4
  %19 = sext i32 %18 to i64
  %20 = getelementptr inbounds [50 x i32], [50 x i32]* %3, i64 0, i64 %19
  store i32 2, i32* %20, align 4
  br label %21

21:                                               ; preds = %67, %10
  %22 = load i32, i32* @i, align 4
  %23 = sext i32 %22 to i64
  %24 = getelementptr inbounds [50 x i32], [50 x i32]* %3, i64 0, i64 %23
  %25 = load i32, i32* %24, align 4
  %26 = load i32, i32* @i, align 4
  %27 = sext i32 %26 to i64
  %28 = getelementptr inbounds [50 x i32], [50 x i32]* %3, i64 0, i64 %27
  %29 = load i32, i32* %28, align 4
  %30 = mul nsw i32 %25, %29
  %31 = load i32, i32* @i, align 4
  %32 = sext i32 %31 to i64
  %33 = getelementptr inbounds [50 x i32], [50 x i32]* %4, i64 0, i64 %32
  %34 = load i32, i32* %33, align 4
  %35 = icmp sle i32 %30, %34
  br i1 %35, label %36, label %73

36:                                               ; preds = %21
  %37 = load i32, i32* @i, align 4
  %38 = sext i32 %37 to i64
  %39 = getelementptr inbounds [50 x i32], [50 x i32]* %4, i64 0, i64 %38
  %40 = load i32, i32* %39, align 4
  %41 = load i32, i32* @i, align 4
  %42 = sext i32 %41 to i64
  %43 = getelementptr inbounds [50 x i32], [50 x i32]* %3, i64 0, i64 %42
  %44 = load i32, i32* %43, align 4
  %45 = srem i32 %40, %44
  %46 = icmp eq i32 %45, 0
  br i1 %46, label %47, label %66

47:                                               ; preds = %36
  %48 = load i32, i32* @i, align 4
  %49 = sext i32 %48 to i64
  %50 = getelementptr inbounds [50 x i32], [50 x i32]* @sum, i64 0, i64 %49
  %51 = load i32, i32* %50, align 4
  %52 = add nsw i32 %51, 1
  store i32 %52, i32* %50, align 4
  %53 = load i32, i32* @i, align 4
  %54 = sext i32 %53 to i64
  %55 = getelementptr inbounds [50 x i32], [50 x i32]* %3, i64 0, i64 %54
  %56 = load i32, i32* %55, align 4
  %57 = load i32, i32* @i, align 4
  %58 = sext i32 %57 to i64
  %59 = getelementptr inbounds [50 x i32], [50 x i32]* %4, i64 0, i64 %58
  %60 = load i32, i32* %59, align 4
  %61 = load i32, i32* @i, align 4
  %62 = sext i32 %61 to i64
  %63 = getelementptr inbounds [50 x i32], [50 x i32]* %3, i64 0, i64 %62
  %64 = load i32, i32* %63, align 4
  %65 = sdiv i32 %60, %64
  call void @digui(i32 %56, i32 %65)
  br label %66

66:                                               ; preds = %47, %36
  br label %67

67:                                               ; preds = %66
  %68 = load i32, i32* @i, align 4
  %69 = sext i32 %68 to i64
  %70 = getelementptr inbounds [50 x i32], [50 x i32]* %3, i64 0, i64 %69
  %71 = load i32, i32* %70, align 4
  %72 = add nsw i32 %71, 1
  store i32 %72, i32* %70, align 4
  br label %21

73:                                               ; preds = %21
  %74 = load i32, i32* @i, align 4
  %75 = sext i32 %74 to i64
  %76 = getelementptr inbounds [50 x i32], [50 x i32]* @sum, i64 0, i64 %75
  %77 = load i32, i32* %76, align 4
  %78 = add nsw i32 %77, 1
  %79 = call i32 (i8*, ...) @printf(i8* getelementptr inbounds ([4 x i8], [4 x i8]* @.str.1, i64 0, i64 0), i32 %78)
  br label %80

80:                                               ; preds = %73
  %81 = load i32, i32* @i, align 4
  %82 = add nsw i32 %81, 1
  store i32 %82, i32* @i, align 4
  br label %6

83:                                               ; preds = %6
  ret i32 0
}

declare dso_local i32 @__isoc99_scanf(i8*, ...) #1

; Function Attrs: noinline nounwind uwtable
define dso_local void @digui(i32 %0, i32 %1) #0 {
  %3 = alloca i32, align 4
  %4 = alloca i32, align 4
  %5 = alloca i32, align 4
  store i32 %0, i32* %3, align 4
  store i32 %1, i32* %4, align 4
  %6 = load i32, i32* %3, align 4
  store i32 %6, i32* %5, align 4
  br label %7

7:                                                ; preds = %29, %2
  %8 = load i32, i32* %5, align 4
  %9 = load i32, i32* %5, align 4
  %10 = mul nsw i32 %8, %9
  %11 = load i32, i32* %4, align 4
  %12 = icmp sle i32 %10, %11
  br i1 %12, label %13, label %32

13:                                               ; preds = %7
  %14 = load i32, i32* %4, align 4
  %15 = load i32, i32* %5, align 4
  %16 = srem i32 %14, %15
  %17 = icmp eq i32 %16, 0
  br i1 %17, label %18, label %28

18:                                               ; preds = %13
  %19 = load i32, i32* @i, align 4
  %20 = sext i32 %19 to i64
  %21 = getelementptr inbounds [50 x i32], [50 x i32]* @sum, i64 0, i64 %20
  %22 = load i32, i32* %21, align 4
  %23 = add nsw i32 %22, 1
  store i32 %23, i32* %21, align 4
  %24 = load i32, i32* %5, align 4
  %25 = load i32, i32* %4, align 4
  %26 = load i32, i32* %5, align 4
  %27 = sdiv i32 %25, %26
  call void @digui(i32 %24, i32 %27)
  br label %28

28:                                               ; preds = %18, %13
  br label %29

29:                                               ; preds = %28
  %30 = load i32, i32* %5, align 4
  %31 = add nsw i32 %30, 1
  store i32 %31, i32* %5, align 4
  br label %7

32:                                               ; preds = %7
  ret void
}

declare dso_local i32 @printf(i8*, ...) #1


!llvm.module.flags = !{!0}
!llvm.ident = !{!1}

!0 = !{i32 1, !"wchar_size", i32 4}
!1 = !{!"clang version 10.0.0-4ubuntu1 "}
